target datalayout = "e-m:e-p270:32:32-p271:32:32-p272:64:64-i64:64-i128:128-f80:128-n8:16:32:64-S128"
target triple = "x86_64-pc-linux-gnu"

@adler32_impl = internal global ptr @dispatch_adler32, align 8
@libdeflate_x86_cpu_features = external global i32, align 4

; Function Attrs: inlinehint nounwind uwtable
define internal i32 @get_x86_cpu_features() #2 {
  %1 = load volatile i32, ptr @libdeflate_x86_cpu_features, align 4, !tbaa !4
  %2 = icmp eq i32 %1, 0
  br i1 %2, label %3, label %4

3:                                                ; preds = %0
  call void @libdeflate_init_x86_cpu_features()
  br label %4

4:                                                ; preds = %3, %0
  %5 = load volatile i32, ptr @libdeflate_x86_cpu_features, align 4, !tbaa !4
  ret i32 %5
}

; Function Attrs: inlinehint nounwind uwtable
define internal ptr @arch_select_adler32_func() #2 {
  %1 = alloca ptr, align 8
  %2 = alloca i32, align 4
  %3 = alloca i32, align 4
  call void @llvm.lifetime.start.p0(i64 4, ptr %2) #22
  %4 = call i32 @get_x86_cpu_features()
  store i32 %4, ptr %2, align 4, !tbaa !4
  %5 = load i32, ptr %2, align 4, !tbaa !4
  %6 = and i32 %5, 32
  %7 = icmp ne i32 %6, 0
  br i1 %7, label %8, label %17

8:                                                ; preds = %0
  %9 = load i32, ptr %2, align 4, !tbaa !4
  %10 = and i32 %9, 64
  %11 = icmp ne i32 %10, 0
  br i1 %11, label %12, label %17

12:                                               ; preds = %8
  %13 = load i32, ptr %2, align 4, !tbaa !4
  %14 = and i32 %13, 512
  %15 = icmp ne i32 %14, 0
  br i1 %15, label %16, label %17

16:                                               ; preds = %12
  store ptr @adler32_x86_avx512_vl512_vnni, ptr %1, align 8
  store i32 1, ptr %3, align 4
  br label %45

17:                                               ; preds = %12, %8, %0
  %18 = load i32, ptr %2, align 4, !tbaa !4
  %19 = and i32 %18, 64
  %20 = icmp ne i32 %19, 0
  br i1 %20, label %21, label %30

21:                                               ; preds = %17
  %22 = load i32, ptr %2, align 4, !tbaa !4
  %23 = and i32 %22, 128
  %24 = icmp ne i32 %23, 0
  br i1 %24, label %25, label %30

25:                                               ; preds = %21
  %26 = load i32, ptr %2, align 4, !tbaa !4
  %27 = and i32 %26, 512
  %28 = icmp ne i32 %27, 0
  br i1 %28, label %29, label %30

29:                                               ; preds = %25
  store ptr @adler32_x86_avx512_vl256_vnni, ptr %1, align 8
  store i32 1, ptr %3, align 4
  br label %45

30:                                               ; preds = %25, %21, %17
  %31 = load i32, ptr %2, align 4, !tbaa !4
  %32 = and i32 %31, 8
  %33 = icmp ne i32 %32, 0
  br i1 %33, label %34, label %39

34:                                               ; preds = %30
  %35 = load i32, ptr %2, align 4, !tbaa !4
  %36 = and i32 %35, 1024
  %37 = icmp ne i32 %36, 0
  br i1 %37, label %38, label %39

38:                                               ; preds = %34
  store ptr @adler32_x86_avx2_vnni, ptr %1, align 8
  store i32 1, ptr %3, align 4
  br label %45

39:                                               ; preds = %34, %30
  %40 = load i32, ptr %2, align 4, !tbaa !4
  %41 = and i32 %40, 8
  %42 = icmp ne i32 %41, 0
  br i1 %42, label %43, label %44

43:                                               ; preds = %39
  store ptr @adler32_x86_avx2, ptr %1, align 8
  store i32 1, ptr %3, align 4
  br label %45

44:                                               ; preds = %39
  store ptr @adler32_x86_sse2, ptr %1, align 8
  store i32 1, ptr %3, align 4
  br label %45

45:                                               ; preds = %44, %43, %38, %29, %16
  call void @llvm.lifetime.end.p0(i64 4, ptr %2) #22
  %46 = load ptr, ptr %1, align 8
  ret ptr %46
}

; Function Attrs: nounwind uwtable
define internal i32 @dispatch_adler32(i32 noundef %0, ptr noundef %1, i64 noundef %2) #0 {
  %4 = alloca i32, align 4
  %5 = alloca ptr, align 8
  %6 = alloca i64, align 8
  %7 = alloca ptr, align 8
  store i32 %0, ptr %4, align 4, !tbaa !4
  store ptr %1, ptr %5, align 8, !tbaa !12
  store i64 %2, ptr %6, align 8, !tbaa !10
  call void @llvm.lifetime.start.p0(i64 8, ptr %7) #22
  %8 = call ptr @arch_select_adler32_func()
  store ptr %8, ptr %7, align 8, !tbaa !8
  %9 = load ptr, ptr %7, align 8, !tbaa !8
  %10 = icmp eq ptr %9, null
  br i1 %10, label %11, label %12

11:                                               ; preds = %3
  store ptr @adler32_generic, ptr %7, align 8, !tbaa !8
  br label %12

12:                                               ; preds = %11, %3
  %13 = load ptr, ptr %7, align 8, !tbaa !8
  store volatile ptr %13, ptr @adler32_impl, align 8, !tbaa !8
  %14 = load ptr, ptr %7, align 8, !tbaa !8
  %15 = load i32, ptr %4, align 4, !tbaa !4
  %16 = load ptr, ptr %5, align 8, !tbaa !12
  %17 = load i64, ptr %6, align 8, !tbaa !10
  %18 = call i32 %14(i32 noundef %15, ptr noundef %16, i64 noundef %17)
  call void @llvm.lifetime.end.p0(i64 8, ptr %7) #22
  ret i32 %18
}