; Function Attrs: nounwind uwtable
define internal i32 @dispatch_adler32(i32 noundef %0, ptr noundef %1, i64 noundef %2) #0 {
  %4 = load volatile i32, ptr @libdeflate_x86_cpu_features, align 4, !tbaa !8
  %5 = icmp eq i32 %4, 0
  br i1 %5, label %6, label %get_x86_cpu_features.exit.i

6:                                                ; preds = %3
  tail call void @libdeflate_init_x86_cpu_features() #12
  br label %get_x86_cpu_features.exit.i

get_x86_cpu_features.exit.i:                      ; preds = %6, %3
  %7 = load volatile i32, ptr @libdeflate_x86_cpu_features, align 4, !tbaa !8
  %8 = and i32 %7, 608
  %or.cond16.not.i = icmp eq i32 %8, 608
  br i1 %or.cond16.not.i, label %arch_select_adler32_func.exit, label %9

9:                                                ; preds = %get_x86_cpu_features.exit.i
  %10 = and i32 %7, 704
  %or.cond18.not.i = icmp eq i32 %10, 704
  br i1 %or.cond18.not.i, label %arch_select_adler32_func.exit, label %11

11:                                               ; preds = %9
  %12 = and i32 %7, 8
  %.not14.i = icmp eq i32 %12, 0
  %13 = and i32 %7, 1032
  %or.cond19.not.i = icmp eq i32 %13, 1032
  %adler32_x86_sse2.adler32_x86_avx2.i = select i1 %.not14.i, ptr @adler32_x86_sse2, ptr @adler32_x86_avx2
  %spec.select.i = select i1 %or.cond19.not.i, ptr @adler32_x86_avx2_vnni, ptr %adler32_x86_sse2.adler32_x86_avx2.i
  br label %arch_select_adler32_func.exit

arch_select_adler32_func.exit:                    ; preds = %get_x86_cpu_features.exit.i, %9, %11
  %.0.i = phi ptr [ @adler32_x86_avx512_vl512_vnni, %get_x86_cpu_features.exit.i ], [ @adler32_x86_avx512_vl256_vnni, %9 ], [ %spec.select.i, %11 ]
  store volatile ptr %.0.i, ptr @adler32_impl, align 8, !tbaa !4
  %14 = tail call i32 %.0.i(i32 noundef %0, ptr noundef %1, i64 noundef %2) #12
  ret i32 %14
}